target datalayout = "e-m:e-p270:32:32-p271:32:32-p272:64:64-i64:64-i128:128-f80:128-n8:16:32:64-S128"
target triple = "x86_64-unknown-linux-gnu"

%struct.FLAC__StreamMetadata_CueSheet = type { [129 x i8], i64, i32, i32, ptr }
%struct.FLAC__StreamMetadata_VorbisComment_Entry = type { i32, ptr }
%struct.FLAC__StreamMetadata = type { i32, i32, i32, %union.anon.0 }
%union.anon.0 = type { %struct.FLAC__StreamMetadata_CueSheet }
%struct.FLAC__StreamMetadata_VorbisComment = type { %struct.FLAC__StreamMetadata_VorbisComment_Entry, i32, ptr }

@CHANNEL_MASK_TAG = dso_local global ptr @.str, align 8
@.str.7 = private unnamed_addr constant [4 x i8] c"=0x\00", align 1
@.str.8 = private unnamed_addr constant [3 x i8] c"%x\00", align 1

; Function Attrs: nounwind sspstrong uwtable
define dso_local i32 @flac__utils_get_channel_mask_tag(ptr noundef %object, ptr noundef %channel_mask) #0 {
entry:
  %retval = alloca i32, align 4
  %object.addr = alloca ptr, align 8
  %channel_mask.addr = alloca ptr, align 8
  %offset = alloca i32, align 4
  %val = alloca i32, align 4
  %p = alloca ptr, align 8
  store ptr %object, ptr %object.addr, align 8
  store ptr %channel_mask, ptr %channel_mask.addr, align 8
  %0 = load ptr, ptr %object.addr, align 8
  %1 = load ptr, ptr @CHANNEL_MASK_TAG, align 8
  %call = call i32 @FLAC__metadata_object_vorbiscomment_find_entry_from(ptr noundef %0, i32 noundef 0, ptr noundef %1)
  store i32 %call, ptr %offset, align 4
  %cmp = icmp sgt i32 0, %call
  br i1 %cmp, label %if.then, label %if.end

if.then:                                          ; preds = %entry
  store i32 0, ptr %retval, align 4
  br label %return

if.end:                                           ; preds = %entry
  %2 = load ptr, ptr %object.addr, align 8
  %data = getelementptr inbounds %struct.FLAC__StreamMetadata, ptr %2, i32 0, i32 3
  %comments = getelementptr inbounds %struct.FLAC__StreamMetadata_VorbisComment, ptr %data, i32 0, i32 2
  %3 = load ptr, ptr %comments, align 8
  %4 = load i32, ptr %offset, align 4
  %idxprom = sext i32 %4 to i64
  %arrayidx = getelementptr inbounds %struct.FLAC__StreamMetadata_VorbisComment_Entry, ptr %3, i64 %idxprom
  %length = getelementptr inbounds %struct.FLAC__StreamMetadata_VorbisComment_Entry, ptr %arrayidx, i32 0, i32 0
  %5 = load i32, ptr %length, align 8
  %conv = zext i32 %5 to i64
  %6 = load ptr, ptr @CHANNEL_MASK_TAG, align 8
  %call1 = call i64 @strlen(ptr noundef %6) #8
  %add = add i64 %call1, 4
  %cmp2 = icmp ult i64 %conv, %add
  br i1 %cmp2, label %if.then4, label %if.end5

if.then4:                                         ; preds = %if.end
  store i32 0, ptr %retval, align 4
  br label %return

if.end5:                                          ; preds = %if.end
  %7 = load ptr, ptr %object.addr, align 8
  %data6 = getelementptr inbounds %struct.FLAC__StreamMetadata, ptr %7, i32 0, i32 3
  %comments7 = getelementptr inbounds %struct.FLAC__StreamMetadata_VorbisComment, ptr %data6, i32 0, i32 2
  %8 = load ptr, ptr %comments7, align 8
  %9 = load i32, ptr %offset, align 4
  %idxprom8 = sext i32 %9 to i64
  %arrayidx9 = getelementptr inbounds %struct.FLAC__StreamMetadata_VorbisComment_Entry, ptr %8, i64 %idxprom8
  %entry10 = getelementptr inbounds %struct.FLAC__StreamMetadata_VorbisComment_Entry, ptr %arrayidx9, i32 0, i32 1
  %10 = load ptr, ptr %entry10, align 8
  %call11 = call ptr @strchr(ptr noundef %10, i32 noundef 61) #8
  store ptr %call11, ptr %p, align 8
  %cmp12 = icmp eq ptr null, %call11
  br i1 %cmp12, label %if.then14, label %if.end15

if.then14:                                        ; preds = %if.end5
  store i32 0, ptr %retval, align 4
  br label %return

if.end15:                                         ; preds = %if.end5
  %11 = load ptr, ptr %p, align 8
  %call16 = call i32 @strncasecmp(ptr noundef %11, ptr noundef @.str.7, i64 noundef 3) #8
  %tobool = icmp ne i32 %call16, 0
  br i1 %tobool, label %if.then17, label %if.end18

if.then17:                                        ; preds = %if.end15
  store i32 0, ptr %retval, align 4
  br label %return

if.end18:                                         ; preds = %if.end15
  %12 = load ptr, ptr %p, align 8
  %add.ptr = getelementptr inbounds i8, ptr %12, i64 3
  %call19 = call i32 (ptr, ptr, ...) @__isoc99_sscanf(ptr noundef %add.ptr, ptr noundef @.str.8, ptr noundef %val) #7
  %cmp20 = icmp ne i32 %call19, 1
  br i1 %cmp20, label %if.then22, label %if.end23

if.then22:                                        ; preds = %if.end18
  store i32 0, ptr %retval, align 4
  br label %return

if.end23:                                         ; preds = %if.end18
  %13 = load i32, ptr %val, align 4
  %14 = load ptr, ptr %channel_mask.addr, align 8
  store i32 %13, ptr %14, align 4
  store i32 1, ptr %retval, align 4
  br label %return

return:                                           ; preds = %if.end23, %if.then22, %if.then17, %if.then14, %if.then4, %if.then
  %15 = load i32, ptr %retval, align 4
  ret i32 %15
}