; Function Attrs: nounwind sspstrong uwtable
define dso_local range(i32 0, 2) i32 @flac__utils_get_channel_mask_tag(ptr noundef %object, ptr noundef writeonly captures(none) %channel_mask) local_unnamed_addr #2 {
entry:
  %val = alloca i32, align 4
  %0 = load ptr, ptr @CHANNEL_MASK_TAG, align 8
  %call = tail call i32 @FLAC__metadata_object_vorbiscomment_find_entry_from(ptr noundef %object, i32 noundef 0, ptr noundef %0) #18
  %cmp = icmp slt i32 %call, 0
  br i1 %cmp, label %return, label %if.end

if.end:                                           ; preds = %entry
  %comments = getelementptr inbounds nuw i8, ptr %object, i64 40
  %1 = load ptr, ptr %comments, align 8
  %idxprom = zext nneg i32 %call to i64
  %arrayidx = getelementptr inbounds nuw %struct.FLAC__StreamMetadata_VorbisComment_Entry, ptr %1, i64 %idxprom
  %2 = load i32, ptr %arrayidx, align 8
  %conv = zext i32 %2 to i64
  %3 = load ptr, ptr @CHANNEL_MASK_TAG, align 8
  %call1 = tail call i64 @strlen(ptr noundef nonnull dereferenceable(1) %3) #19
  %add = add i64 %call1, 4
  %cmp2 = icmp ugt i64 %add, %conv
  br i1 %cmp2, label %return, label %if.end5

if.end5:                                          ; preds = %if.end
  %entry10 = getelementptr inbounds nuw i8, ptr %arrayidx, i64 8
  %4 = load ptr, ptr %entry10, align 8
  %call11 = tail call ptr @strchr(ptr noundef nonnull dereferenceable(1) %4, i32 noundef 61) #19
  %cmp12 = icmp eq ptr %call11, null
  br i1 %cmp12, label %return, label %if.end15

if.end15:                                         ; preds = %if.end5
  %call16 = tail call i32 @strncasecmp(ptr noundef nonnull %call11, ptr noundef nonnull @.str.7, i64 noundef 3) #19
  %tobool.not = icmp eq i32 %call16, 0
  br i1 %tobool.not, label %if.end18, label %return

if.end18:                                         ; preds = %if.end15
  %add.ptr = getelementptr inbounds nuw i8, ptr %call11, i64 3
  %call19 = call i32 (ptr, ptr, ...) @__isoc99_sscanf(ptr noundef nonnull %add.ptr, ptr noundef nonnull @.str.8, ptr noundef nonnull %val) #18
  %cmp20.not = icmp eq i32 %call19, 1
  br i1 %cmp20.not, label %if.end23, label %return

if.end23:                                         ; preds = %if.end18
  %5 = load i32, ptr %val, align 4
  store i32 %5, ptr %channel_mask, align 4
  br label %return

return:                                           ; preds = %if.end18, %if.end15, %if.end5, %if.end, %entry, %if.end23
  %retval.0 = phi i32 [ 1, %if.end23 ], [ 0, %entry ], [ 0, %if.end ], [ 0, %if.end5 ], [ 0, %if.end15 ], [ 0, %if.end18 ]
  ret i32 %retval.0
}